; Function Attrs: mustprogress uwtable
define range(i32 0, 2) i32 @ImfHeaderBox2fAttribute(ptr noundef nonnull %0, ptr noundef %1, ptr noundef writeonly captures(none) %2, ptr noundef writeonly captures(none) %3, ptr noundef writeonly captures(none) %4, ptr noundef writeonly captures(none) %5) local_unnamed_addr #8 personality ptr @__gxx_personality_v0 {
  %7 = invoke noundef nonnull align 8 dereferenceable(8) ptr @_ZNK7Imf_3_46HeaderixEPKc(ptr noundef nonnull align 8 dereferenceable(49) %0, ptr noundef %1)
          to label %.noexc unwind label %23

.noexc:                                           ; preds = %6
  %8 = tail call ptr @__dynamic_cast(ptr nonnull %7, ptr nonnull @_ZTIN7Imf_3_49AttributeE, ptr nonnull @_ZTIN7Imf_3_414TypedAttributeIN9Imath_3_23BoxINS1_4Vec2IfEEEEEE, i64 0) #24
  %9 = icmp eq ptr %8, null
  br i1 %9, label %10, label %_ZNK7Imf_3_46Header14typedAttributeINS_14TypedAttributeIN9Imath_3_23BoxINS3_4Vec2IfEEEEEEEERKT_PKc.exit

10:                                               ; preds = %.noexc
  %11 = tail call ptr @__cxa_allocate_exception(i64 72) #24
  invoke void @_ZN7Iex_3_47TypeExcC1EPKc(ptr noundef nonnull align 8 dereferenceable(72) %11, ptr noundef nonnull @.str)
          to label %12 unwind label %13

12:                                               ; preds = %10
  invoke void @__cxa_throw(ptr nonnull %11, ptr nonnull @_ZTIN7Iex_3_47TypeExcE, ptr nonnull @_ZN7Iex_3_47TypeExcD1Ev) #26
          to label %.noexc15 unwind label %23

.noexc15:                                         ; preds = %12
  unreachable

13:                                               ; preds = %10
  %14 = landingpad { ptr, i32 }
          cleanup
          catch ptr @_ZTISt9exception
  tail call void @__cxa_free_exception(ptr nonnull %11) #24
  br label %.body

_ZNK7Imf_3_46Header14typedAttributeINS_14TypedAttributeIN9Imath_3_23BoxINS3_4Vec2IfEEEEEEEERKT_PKc.exit: ; preds = %.noexc
  %15 = getelementptr inbounds nuw i8, ptr %8, i64 8
  %16 = load float, ptr %15, align 4, !tbaa !49
  store float %16, ptr %2, align 4, !tbaa !8
  %17 = getelementptr inbounds nuw i8, ptr %8, i64 12
  %18 = load float, ptr %17, align 4, !tbaa !51
  store float %18, ptr %3, align 4, !tbaa !8
  %19 = getelementptr inbounds nuw i8, ptr %8, i64 16
  %20 = load float, ptr %19, align 4, !tbaa !52
  store float %20, ptr %4, align 4, !tbaa !8
  %21 = getelementptr inbounds nuw i8, ptr %8, i64 20
  %22 = load float, ptr %21, align 4, !tbaa !53
  store float %22, ptr %5, align 4, !tbaa !8
  br label %36

23:                                               ; preds = %12, %6
  %24 = landingpad { ptr, i32 }
          cleanup
          catch ptr @_ZTISt9exception
  br label %.body

.body:                                            ; preds = %13, %23
  %eh.lpad-body = phi { ptr, i32 } [ %24, %23 ], [ %14, %13 ]
  %25 = extractvalue { ptr, i32 } %eh.lpad-body, 1
  %26 = tail call i32 @llvm.eh.typeid.for.p0(ptr nonnull @_ZTISt9exception) #24
  %27 = icmp eq i32 %25, %26
  br i1 %27, label %28, label %37

28:                                               ; preds = %.body
  %29 = extractvalue { ptr, i32 } %eh.lpad-body, 0
  %30 = tail call ptr @__cxa_begin_catch(ptr %29) #24
  %31 = load ptr, ptr %30, align 8, !tbaa !22
  %32 = getelementptr inbounds nuw i8, ptr %31, i64 16
  %33 = load ptr, ptr %32, align 8
  %34 = tail call noundef ptr %33(ptr noundef nonnull align 8 dereferenceable(8) %30) #24
  %35 = tail call ptr @strncpy(ptr noundef nonnull dereferenceable(1) @_ZN12_GLOBAL__N_112errorMessageE, ptr noundef nonnull dereferenceable(1) %34, i64 noundef 1023) #24
  store i8 0, ptr getelementptr inbounds nuw (i8, ptr @_ZN12_GLOBAL__N_112errorMessageE, i64 1023), align 1, !tbaa !15
  tail call void @__cxa_end_catch()
  br label %36

36:                                               ; preds = %28, %_ZNK7Imf_3_46Header14typedAttributeINS_14TypedAttributeIN9Imath_3_23BoxINS3_4Vec2IfEEEEEEEERKT_PKc.exit
  %.0 = phi i32 [ 1, %_ZNK7Imf_3_46Header14typedAttributeINS_14TypedAttributeIN9Imath_3_23BoxINS3_4Vec2IfEEEEEEEERKT_PKc.exit ], [ 0, %28 ]
  ret i32 %.0

37:                                               ; preds = %.body
  resume { ptr, i32 } %eh.lpad-body
}